target datalayout = "e-m:e-p270:32:32-p271:32:32-p272:64:64-i64:64-i128:128-f80:128-n8:16:32:64-S128"
target triple = "x86_64-unknown-linux-gnu"

%"class.EA::StdC::DateTime" = type <{ i64, i32, [4 x i8] }>

; Function Attrs: mustprogress uwtable
define dso_local void @_ZN2EA4StdC8DateTime12SetParameterENS0_9ParameterEj(ptr noundef nonnull align 8 dereferenceable(12) %this, i32 noundef %parameter, i32 noundef %nValue) #0 align 2 {
entry:
  %this.addr = alloca ptr, align 8
  %parameter.addr = alloca i32, align 4
  %nValue.addr = alloca i32, align 4
  %nDayOfYear = alloca i32, align 4
  %nDayOfWeek = alloca i32, align 4
  %nParameterValue = alloca i32, align 4
  store ptr %this, ptr %this.addr, align 8
  store i32 %parameter, ptr %parameter.addr, align 4
  store i32 %nValue, ptr %nValue.addr, align 4
  %this1 = load ptr, ptr %this.addr, align 8
  %0 = load i32, ptr %parameter.addr, align 4
  switch i32 %0, label %sw.default [
    i32 1, label %sw.bb
    i32 2, label %sw.bb2
    i32 6, label %sw.bb3
    i32 8, label %sw.bb4
    i32 9, label %sw.bb5
    i32 10, label %sw.bb6
    i32 11, label %sw.bb7
    i32 5, label %sw.bb8
    i32 7, label %sw.bb9
    i32 3, label %sw.bb17
    i32 4, label %sw.bb17
    i32 0, label %sw.bb25
  ]

sw.bb:                                            ; preds = %entry
  %1 = load i32, ptr %nValue.addr, align 4
  call void @_ZN2EA4StdC8DateTime3SetEjjjjjjj(ptr noundef nonnull align 8 dereferenceable(12) %this1, i32 noundef %1, i32 noundef -1, i32 noundef -1, i32 noundef -1, i32 noundef -1, i32 noundef -1, i32 noundef -1)
  br label %sw.epilog

sw.bb2:                                           ; preds = %entry
  %2 = load i32, ptr %nValue.addr, align 4
  call void @_ZN2EA4StdC8DateTime3SetEjjjjjjj(ptr noundef nonnull align 8 dereferenceable(12) %this1, i32 noundef -1, i32 noundef %2, i32 noundef -1, i32 noundef -1, i32 noundef -1, i32 noundef -1, i32 noundef -1)
  br label %sw.epilog

sw.bb3:                                           ; preds = %entry
  %3 = load i32, ptr %nValue.addr, align 4
  call void @_ZN2EA4StdC8DateTime3SetEjjjjjjj(ptr noundef nonnull align 8 dereferenceable(12) %this1, i32 noundef -1, i32 noundef -1, i32 noundef %3, i32 noundef -1, i32 noundef -1, i32 noundef -1, i32 noundef -1)
  br label %sw.epilog

sw.bb4:                                           ; preds = %entry
  %4 = load i32, ptr %nValue.addr, align 4
  call void @_ZN2EA4StdC8DateTime3SetEjjjjjjj(ptr noundef nonnull align 8 dereferenceable(12) %this1, i32 noundef -1, i32 noundef -1, i32 noundef -1, i32 noundef %4, i32 noundef -1, i32 noundef -1, i32 noundef -1)
  br label %sw.epilog

sw.bb5:                                           ; preds = %entry
  %5 = load i32, ptr %nValue.addr, align 4
  call void @_ZN2EA4StdC8DateTime3SetEjjjjjjj(ptr noundef nonnull align 8 dereferenceable(12) %this1, i32 noundef -1, i32 noundef -1, i32 noundef -1, i32 noundef -1, i32 noundef %5, i32 noundef -1, i32 noundef -1)
  br label %sw.epilog

sw.bb6:                                           ; preds = %entry
  %6 = load i32, ptr %nValue.addr, align 4
  call void @_ZN2EA4StdC8DateTime3SetEjjjjjjj(ptr noundef nonnull align 8 dereferenceable(12) %this1, i32 noundef -1, i32 noundef -1, i32 noundef -1, i32 noundef -1, i32 noundef -1, i32 noundef %6, i32 noundef -1)
  br label %sw.epilog

sw.bb7:                                           ; preds = %entry
  %7 = load i32, ptr %nValue.addr, align 4
  call void @_ZN2EA4StdC8DateTime3SetEjjjjjjj(ptr noundef nonnull align 8 dereferenceable(12) %this1, i32 noundef -1, i32 noundef -1, i32 noundef -1, i32 noundef -1, i32 noundef -1, i32 noundef -1, i32 noundef %7)
  br label %sw.epilog

sw.bb8:                                           ; preds = %entry
  %call = call noundef i32 @_ZNK2EA4StdC8DateTime12GetParameterENS0_9ParameterE(ptr noundef nonnull align 8 dereferenceable(12) %this1, i32 noundef 5)
  store i32 %call, ptr %nDayOfYear, align 4
  %8 = load i32, ptr %nValue.addr, align 4
  %9 = load i32, ptr %nDayOfYear, align 4
  %sub = sub i32 %8, %9
  %mul = mul nsw i32 %sub, 86400
  %conv = sext i32 %mul to i64
  %mnSeconds = getelementptr inbounds %"class.EA::StdC::DateTime", ptr %this1, i32 0, i32 0
  %10 = load i64, ptr %mnSeconds, align 8
  %add = add nsw i64 %10, %conv
  store i64 %add, ptr %mnSeconds, align 8
  br label %sw.epilog

sw.bb9:                                           ; preds = %entry
  %11 = load i32, ptr %nValue.addr, align 4
  %cmp = icmp uge i32 %11, 1
  br i1 %cmp, label %land.lhs.true, label %if.else

land.lhs.true:                                    ; preds = %sw.bb9
  %12 = load i32, ptr %nValue.addr, align 4
  %cmp10 = icmp ule i32 %12, 7
  br i1 %cmp10, label %if.then, label %if.else

if.then:                                          ; preds = %land.lhs.true
  %call11 = call noundef i32 @_ZNK2EA4StdC8DateTime12GetParameterENS0_9ParameterE(ptr noundef nonnull align 8 dereferenceable(12) %this1, i32 noundef 7)
  store i32 %call11, ptr %nDayOfWeek, align 4
  %13 = load i32, ptr %nValue.addr, align 4
  %14 = load i32, ptr %nDayOfWeek, align 4
  %sub12 = sub i32 %13, %14
  %mul13 = mul nsw i32 %sub12, 86400
  %conv14 = sext i32 %mul13 to i64
  %mnSeconds15 = getelementptr inbounds %"class.EA::StdC::DateTime", ptr %this1, i32 0, i32 0
  %15 = load i64, ptr %mnSeconds15, align 8
  %add16 = add nsw i64 %15, %conv14
  store i64 %add16, ptr %mnSeconds15, align 8
  br label %if.end

if.else:                                          ; preds = %land.lhs.true, %sw.bb9
  br label %if.end

if.end:                                           ; preds = %if.else, %if.then
  br label %sw.epilog

sw.bb17:                                          ; preds = %entry, %entry
  %16 = load i32, ptr %parameter.addr, align 4
  %call18 = call noundef i32 @_ZNK2EA4StdC8DateTime12GetParameterENS0_9ParameterE(ptr noundef nonnull align 8 dereferenceable(12) %this1, i32 noundef %16)
  store i32 %call18, ptr %nParameterValue, align 4
  %17 = load i32, ptr %nValue.addr, align 4
  %18 = load i32, ptr %nParameterValue, align 4
  %sub19 = sub i32 %17, %18
  %mul20 = mul nsw i32 %sub19, 7
  %mul21 = mul nsw i32 %mul20, 86400
  %conv22 = sext i32 %mul21 to i64
  %mnSeconds23 = getelementptr inbounds %"class.EA::StdC::DateTime", ptr %this1, i32 0, i32 0
  %19 = load i64, ptr %mnSeconds23, align 8
  %add24 = add nsw i64 %19, %conv22
  store i64 %add24, ptr %mnSeconds23, align 8
  br label %sw.epilog

sw.bb25:                                          ; preds = %entry
  br label %sw.default

sw.default:                                       ; preds = %sw.bb25, %entry
  br label %sw.epilog

sw.epilog:                                        ; preds = %sw.default, %sw.bb17, %if.end, %sw.bb8, %sw.bb7, %sw.bb6, %sw.bb5, %sw.bb4, %sw.bb3, %sw.bb2, %sw.bb
  ret void
}

; Function Attrs: mustprogress uwtable
define dso_local void @_ZN2EA4StdC8DateTime7AddTimeENS0_9ParameterEl(ptr noundef nonnull align 8 dereferenceable(12) %this, i32 noundef %parameter, i64 noundef %nValue) #0 align 2 {
entry:
  %this.addr = alloca ptr, align 8
  %parameter.addr = alloca i32, align 4
  %nValue.addr = alloca i64, align 8
  %nYear = alloca i32, align 4
  %nMonth = alloca i32, align 4
  %newNanoseconds = alloca i64, align 8
  %addedSeconds = alloca i64, align 8
  store ptr %this, ptr %this.addr, align 8
  store i32 %parameter, ptr %parameter.addr, align 4
  store i64 %nValue, ptr %nValue.addr, align 8
  %this1 = load ptr, ptr %this.addr, align 8
  %0 = load i32, ptr %parameter.addr, align 4
  switch i32 %0, label %sw.default [
    i32 1, label %sw.bb
    i32 2, label %sw.bb3
    i32 6, label %sw.bb16
    i32 5, label %sw.bb16
    i32 7, label %sw.bb16
    i32 8, label %sw.bb18
    i32 9, label %sw.bb22
    i32 10, label %sw.bb26
    i32 11, label %sw.bb29
    i32 3, label %sw.bb38
    i32 4, label %sw.bb38
    i32 0, label %sw.bb43
  ]

sw.bb:                                            ; preds = %entry
  %call = call noundef i32 @_ZNK2EA4StdC8DateTime12GetParameterENS0_9ParameterE(ptr noundef nonnull align 8 dereferenceable(12) %this1, i32 noundef 1)
  %conv = zext i32 %call to i64
  %1 = load i64, ptr %nValue.addr, align 8
  %add = add nsw i64 %conv, %1
  %conv2 = trunc i64 %add to i32
  call void @_ZN2EA4StdC8DateTime12SetParameterENS0_9ParameterEj(ptr noundef nonnull align 8 dereferenceable(12) %this1, i32 noundef 1, i32 noundef %conv2)
  br label %sw.epilog

sw.bb3:                                           ; preds = %entry
  %call4 = call noundef i32 @_ZNK2EA4StdC8DateTime12GetParameterENS0_9ParameterE(ptr noundef nonnull align 8 dereferenceable(12) %this1, i32 noundef 1)
  %conv5 = zext i32 %call4 to i64
  %2 = load i64, ptr %nValue.addr, align 8
  %div = sdiv i64 %2, 12
  %add6 = add nsw i64 %conv5, %div
  %conv7 = trunc i64 %add6 to i32
  store i32 %conv7, ptr %nYear, align 4
  %3 = load i64, ptr %nValue.addr, align 8
  %rem = srem i64 %3, 12
  store i64 %rem, ptr %nValue.addr, align 8
  %call8 = call noundef i32 @_ZNK2EA4StdC8DateTime12GetParameterENS0_9ParameterE(ptr noundef nonnull align 8 dereferenceable(12) %this1, i32 noundef 2)
  store i32 %call8, ptr %nMonth, align 4
  %4 = load i32, ptr %nMonth, align 4
  %conv9 = zext i32 %4 to i64
  %5 = load i64, ptr %nValue.addr, align 8
  %add10 = add nsw i64 %conv9, %5
  store i64 %add10, ptr %nValue.addr, align 8
  %6 = load i64, ptr %nValue.addr, align 8
  %cmp = icmp slt i64 %6, 1
  br i1 %cmp, label %if.then, label %if.else

if.then:                                          ; preds = %sw.bb3
  %7 = load i32, ptr %nYear, align 4
  %dec = add i32 %7, -1
  store i32 %dec, ptr %nYear, align 4
  %8 = load i64, ptr %nValue.addr, align 8
  %add11 = add nsw i64 %8, 12
  store i64 %add11, ptr %nValue.addr, align 8
  br label %if.end14

if.else:                                          ; preds = %sw.bb3
  %9 = load i64, ptr %nValue.addr, align 8
  %cmp12 = icmp sgt i64 %9, 12
  br i1 %cmp12, label %if.then13, label %if.end

if.then13:                                        ; preds = %if.else
  %10 = load i32, ptr %nYear, align 4
  %inc = add i32 %10, 1
  store i32 %inc, ptr %nYear, align 4
  %11 = load i64, ptr %nValue.addr, align 8
  %sub = sub nsw i64 %11, 12
  store i64 %sub, ptr %nValue.addr, align 8
  br label %if.end

if.end:                                           ; preds = %if.then13, %if.else
  br label %if.end14

if.end14:                                         ; preds = %if.end, %if.then
  %12 = load i32, ptr %nYear, align 4
  %13 = load i64, ptr %nValue.addr, align 8
  %conv15 = trunc i64 %13 to i32
  call void @_ZN2EA4StdC8DateTime3SetEjjjjjjj(ptr noundef nonnull align 8 dereferenceable(12) %this1, i32 noundef %12, i32 noundef %conv15, i32 noundef -1, i32 noundef -1, i32 noundef -1, i32 noundef -1, i32 noundef -1)
  br label %sw.epilog

sw.bb16:                                          ; preds = %entry, %entry, %entry
  %14 = load i64, ptr %nValue.addr, align 8
  %mul = mul nsw i64 %14, 86400
  %mnSeconds = getelementptr inbounds %"class.EA::StdC::DateTime", ptr %this1, i32 0, i32 0
  %15 = load i64, ptr %mnSeconds, align 8
  %add17 = add nsw i64 %15, %mul
  store i64 %add17, ptr %mnSeconds, align 8
  br label %sw.epilog

sw.bb18:                                          ; preds = %entry
  %16 = load i64, ptr %nValue.addr, align 8
  %mul19 = mul nsw i64 %16, 3600
  %mnSeconds20 = getelementptr inbounds %"class.EA::StdC::DateTime", ptr %this1, i32 0, i32 0
  %17 = load i64, ptr %mnSeconds20, align 8
  %add21 = add nsw i64 %17, %mul19
  store i64 %add21, ptr %mnSeconds20, align 8
  br label %sw.epilog

sw.bb22:                                          ; preds = %entry
  %18 = load i64, ptr %nValue.addr, align 8
  %mul23 = mul nsw i64 %18, 60
  %mnSeconds24 = getelementptr inbounds %"class.EA::StdC::DateTime", ptr %this1, i32 0, i32 0
  %19 = load i64, ptr %mnSeconds24, align 8
  %add25 = add nsw i64 %19, %mul23
  store i64 %add25, ptr %mnSeconds24, align 8
  br label %sw.epilog

sw.bb26:                                          ; preds = %entry
  %20 = load i64, ptr %nValue.addr, align 8
  %mnSeconds27 = getelementptr inbounds %"class.EA::StdC::DateTime", ptr %this1, i32 0, i32 0
  %21 = load i64, ptr %mnSeconds27, align 8
  %add28 = add nsw i64 %21, %20
  store i64 %add28, ptr %mnSeconds27, align 8
  br label %sw.epilog

sw.bb29:                                          ; preds = %entry
  %call30 = call noundef i32 @_ZNK2EA4StdC8DateTime12GetParameterENS0_9ParameterE(ptr noundef nonnull align 8 dereferenceable(12) %this1, i32 noundef 11)
  %conv31 = zext i32 %call30 to i64
  %22 = load i64, ptr %nValue.addr, align 8
  %add32 = add nsw i64 %conv31, %22
  store i64 %add32, ptr %newNanoseconds, align 8
  %23 = load i64, ptr %newNanoseconds, align 8
  %div33 = sdiv i64 %23, 1000000000
  store i64 %div33, ptr %addedSeconds, align 8
  %24 = load i64, ptr %newNanoseconds, align 8
  %rem34 = srem i64 %24, 1000000000
  store i64 %rem34, ptr %newNanoseconds, align 8
  %25 = load i64, ptr %addedSeconds, align 8
  %conv35 = trunc i64 %25 to i32
  %conv36 = zext i32 %conv35 to i64
  call void @_ZN2EA4StdC8DateTime7AddTimeENS0_9ParameterEl(ptr noundef nonnull align 8 dereferenceable(12) %this1, i32 noundef 10, i64 noundef %conv36)
  %26 = load i64, ptr %newNanoseconds, align 8
  %conv37 = trunc i64 %26 to i32
  call void @_ZN2EA4StdC8DateTime12SetParameterENS0_9ParameterEj(ptr noundef nonnull align 8 dereferenceable(12) %this1, i32 noundef 11, i32 noundef %conv37)
  br label %sw.epilog

sw.bb38:                                          ; preds = %entry, %entry
  %27 = load i64, ptr %nValue.addr, align 8
  %mul39 = mul nsw i64 %27, 7
  %mul40 = mul nsw i64 %mul39, 86400
  %mnSeconds41 = getelementptr inbounds %"class.EA::StdC::DateTime", ptr %this1, i32 0, i32 0
  %28 = load i64, ptr %mnSeconds41, align 8
  %add42 = add nsw i64 %28, %mul40
  store i64 %add42, ptr %mnSeconds41, align 8
  br label %sw.epilog

sw.bb43:                                          ; preds = %entry
  br label %sw.default

sw.default:                                       ; preds = %sw.bb43, %entry
  br label %sw.epilog

sw.epilog:                                        ; preds = %sw.default, %sw.bb38, %sw.bb29, %sw.bb26, %sw.bb22, %sw.bb18, %sw.bb16, %if.end14, %sw.bb
  %mnSeconds44 = getelementptr inbounds %"class.EA::StdC::DateTime", ptr %this1, i32 0, i32 0
  %29 = load i64, ptr %mnSeconds44, align 8
  %cmp45 = icmp slt i64 %29, 0
  br i1 %cmp45, label %if.then46, label %if.end48

if.then46:                                        ; preds = %sw.epilog
  %mnSeconds47 = getelementptr inbounds %"class.EA::StdC::DateTime", ptr %this1, i32 0, i32 0
  store i64 0, ptr %mnSeconds47, align 8
  br label %if.end48

if.end48:                                         ; preds = %if.then46, %sw.epilog
  ret void
}