; Function Attrs: mustprogress nofree nosync nounwind willreturn memory(argmem: readwrite) uwtable
define dso_local void @_ZN2EA4StdC8DateTime7AddTimeENS0_9ParameterEl(ptr noundef nonnull align 8 dereferenceable(12) %this, i32 noundef %parameter, i64 noundef %nValue) local_unnamed_addr #8 align 2 {
entry:
  switch i32 %parameter, label %sw.epilogthread-pre-split [
    i32 1, label %sw.bb
    i32 2, label %sw.bb3
    i32 6, label %sw.bb16
    i32 5, label %sw.bb16
    i32 7, label %sw.bb16
    i32 8, label %sw.bb18
    i32 9, label %sw.bb22
    i32 10, label %sw.bb26
    i32 11, label %sw.bb29
    i32 3, label %sw.bb38
    i32 4, label %sw.bb38
  ]

sw.bb:                                            ; preds = %entry
  %0 = load i64, ptr %this, align 8
  %div.i = sdiv i64 %0, 86400
  %div2.i = sdiv i64 %0, 31536000
  %sub.i = add nsw i64 %div2.i, -1
  %div3.neg.i = sdiv i64 %sub.i, -4
  %div6.neg.neg.i = sdiv i64 %sub.i, 100
  %div10.neg.i = sdiv i64 %sub.i, -400
  %sub7.neg.i = add nsw i64 %div.i, -1
  %add.neg.i = add nsw i64 %sub7.neg.i, %div3.neg.i
  %sub11.i = add nsw i64 %add.neg.i, %div6.neg.neg.i
  %sub12.i = add nsw i64 %sub11.i, %div10.neg.i
  %div13.i = sdiv i64 %sub12.i, 365
  %conv.i = trunc i64 %div13.i to i32
  %1 = trunc i64 %nValue to i32
  %add14.i = add i32 %1, 1
  %conv2 = add i32 %add14.i, %conv.i
  tail call void @_ZN2EA4StdC8DateTime3SetEjjjjjjj(ptr noundef nonnull align 8 dereferenceable(12) %this, i32 noundef %conv2, i32 noundef -1, i32 noundef -1, i32 noundef -1, i32 noundef -1, i32 noundef -1, i32 noundef -1)
  br label %sw.epilogthread-pre-split

sw.bb3:                                           ; preds = %entry
  %2 = load i64, ptr %this, align 8
  %div.i19 = sdiv i64 %2, 86400
  %div2.i20 = sdiv i64 %2, 31536000
  %sub.i21 = add nsw i64 %div2.i20, -1
  %div3.neg.i22 = sdiv i64 %sub.i21, -4
  %div6.neg.neg.i23 = sdiv i64 %sub.i21, 100
  %div10.neg.i24 = sdiv i64 %sub.i21, -400
  %sub7.neg.i25 = add nsw i64 %div.i19, -1
  %add.neg.i26 = add nsw i64 %sub7.neg.i25, %div3.neg.i22
  %sub11.i27 = add nsw i64 %add.neg.i26, %div6.neg.neg.i23
  %sub12.i28 = add nsw i64 %sub11.i27, %div10.neg.i24
  %div13.i29 = sdiv i64 %sub12.i28, 365
  %conv.i30 = trunc i64 %div13.i29 to i32
  %div = sdiv i64 %nValue, 12
  %3 = trunc i64 %div to i32
  %add14.i31 = add i32 %conv.i30, %3
  %rem = srem i64 %nValue, 12
  %call8 = tail call noundef i32 @_ZNK2EA4StdC8DateTime12GetParameterENS0_9ParameterE(ptr noundef nonnull align 8 dereferenceable(12) %this, i32 noundef 2)
  %conv9 = zext i32 %call8 to i64
  %add10 = add nsw i64 %rem, %conv9
  %cmp = icmp slt i64 %add10, 1
  br i1 %cmp, label %if.then, label %if.else

if.then:                                          ; preds = %sw.bb3
  %add11 = add nsw i64 %add10, 12
  br label %if.end14

if.else:                                          ; preds = %sw.bb3
  %conv7 = add i32 %add14.i31, 1
  %cmp12 = icmp samesign ugt i64 %add10, 12
  br i1 %cmp12, label %if.then13, label %if.end14

if.then13:                                        ; preds = %if.else
  %inc = add i32 %add14.i31, 2
  %sub = add nsw i64 %add10, -12
  br label %if.end14

if.end14:                                         ; preds = %if.else, %if.then13, %if.then
  %nYear.0 = phi i32 [ %add14.i31, %if.then ], [ %inc, %if.then13 ], [ %conv7, %if.else ]
  %nValue.addr.0 = phi i64 [ %add11, %if.then ], [ %sub, %if.then13 ], [ %add10, %if.else ]
  %conv15 = trunc nuw i64 %nValue.addr.0 to i32
  tail call void @_ZN2EA4StdC8DateTime3SetEjjjjjjj(ptr noundef nonnull align 8 dereferenceable(12) %this, i32 noundef %nYear.0, i32 noundef %conv15, i32 noundef -1, i32 noundef -1, i32 noundef -1, i32 noundef -1, i32 noundef -1)
  br label %sw.epilogthread-pre-split

sw.bb16:                                          ; preds = %entry, %entry, %entry
  %mul = mul nsw i64 %nValue, 86400
  %4 = load i64, ptr %this, align 8
  %add17 = add nsw i64 %4, %mul
  store i64 %add17, ptr %this, align 8
  br label %sw.epilog

sw.bb18:                                          ; preds = %entry
  %mul19 = mul nsw i64 %nValue, 3600
  %5 = load i64, ptr %this, align 8
  %add21 = add nsw i64 %5, %mul19
  store i64 %add21, ptr %this, align 8
  br label %sw.epilog

sw.bb22:                                          ; preds = %entry
  %mul23 = mul nsw i64 %nValue, 60
  %6 = load i64, ptr %this, align 8
  %add25 = add nsw i64 %6, %mul23
  store i64 %add25, ptr %this, align 8
  br label %sw.epilog

sw.bb26:                                          ; preds = %entry
  %7 = load i64, ptr %this, align 8
  %add28 = add nsw i64 %7, %nValue
  store i64 %add28, ptr %this, align 8
  br label %sw.epilog

sw.bb29:                                          ; preds = %entry
  %mnNanosecond.i = getelementptr inbounds nuw i8, ptr %this, i64 8
  %8 = load i32, ptr %mnNanosecond.i, align 8
  %conv31 = zext i32 %8 to i64
  %add32 = add nsw i64 %nValue, %conv31
  %div33 = sdiv i64 %add32, 1000000000
  %rem34 = srem i64 %add32, 1000000000
  %conv36 = and i64 %div33, 4294967295
  %9 = load i64, ptr %this, align 8
  %add28.i = add nsw i64 %conv36, %9
  %spec.store.select = tail call i64 @llvm.smax.i64(i64 %add28.i, i64 0)
  store i64 %spec.store.select, ptr %this, align 8
  %conv37 = trunc nsw i64 %rem34 to i32
  tail call void @_ZN2EA4StdC8DateTime3SetEjjjjjjj(ptr noundef nonnull align 8 dereferenceable(12) %this, i32 noundef -1, i32 noundef -1, i32 noundef -1, i32 noundef -1, i32 noundef -1, i32 noundef -1, i32 noundef %conv37)
  br label %sw.epilogthread-pre-split

sw.bb38:                                          ; preds = %entry, %entry
  %mul40 = mul nsw i64 %nValue, 604800
  %10 = load i64, ptr %this, align 8
  %add42 = add nsw i64 %10, %mul40
  store i64 %add42, ptr %this, align 8
  br label %sw.epilog

sw.epilogthread-pre-split:                        ; preds = %sw.bb, %if.end14, %sw.bb29, %entry
  %.pr = load i64, ptr %this, align 8
  br label %sw.epilog

sw.epilog:                                        ; preds = %sw.epilogthread-pre-split, %sw.bb38, %sw.bb26, %sw.bb22, %sw.bb18, %sw.bb16
  %11 = phi i64 [ %.pr, %sw.epilogthread-pre-split ], [ %add42, %sw.bb38 ], [ %add28, %sw.bb26 ], [ %add25, %sw.bb22 ], [ %add21, %sw.bb18 ], [ %add17, %sw.bb16 ]
  %cmp45 = icmp slt i64 %11, 0
  br i1 %cmp45, label %if.then46, label %if.end48

if.then46:                                        ; preds = %sw.epilog
  store i64 0, ptr %this, align 8
  br label %if.end48

if.end48:                                         ; preds = %if.then46, %sw.epilog
  ret void
}